(lp0
(lp1
S'BouncingCow'
p2
aS'Cool Plasma'
p3
aS'GLMatrix'
p4
aa(lp5
S'Absolutely hilarious!'
p6
aS'Plasma with a slow setting.'
p7
aS'Everyone loves the matrix!'
p8
aa(lp9
I01
aI01
aI01
aa(lp10
F1.0
aF4.4871794871794872
aF1.0
aa(lp11
S'bouncingcow'
p12
aS'plasma'
p13
aS'glmatrix'
p14
aa(lp15
F100.0
aF35.0
aF80.0
aa(lp16
I01
aI01
aI01
aa(lp17
S''
p18
ag18
ag18
aa.